(dp0
S'learning <dobj>'
p1
(dp2
S'subj_freq'
p3
I8
sS'freq'
p4
I8
sS'type'
p5
S'dobj'
p6
sS'display'
p7
S'learning'
p8
sS'prob'
p9
F1.0
ssVwatched <dobj>
p10
(dp11
S'type'
p12
S'dobj'
p13
sS'freq'
p14
I27
sS'subj_freq'
p15
I27
sS'display'
p16
Vwatched
p17
sS'prob'
p18
F1.0
ssS'<subj> desired'
p19
(dp20
S'type'
p21
S'subj'
p22
sS'freq'
p23
I1
sS'subj_freq'
p24
I1
sS'display'
p25
S'desired'
p26
sS'prob'
p27
F1.0
ssV<subj> tracks
p28
(dp29
S'subj_freq'
p30
I9
sS'freq'
p31
I9
sS'type'
p32
S'subj'
p33
sS'display'
p34
Vtracks
p35
sS'prob'
p36
F1.0
ssVimagined <dobj>
p37
(dp38
g30
I9
sg31
I9
sg32
S'dobj'
p39
sg34
Vimagined
p40
sg36
F1.0
ssS'<subj> block'
p41
(dp42
g21
g22
sg23
I1
sg24
I1
sg25
S'block'
p43
sg27
F1.0
ssVbring <dobj>
p44
(dp45
g30
I9
sg31
I9
sg32
g39
sg34
Vbring
p46
sg36
F1.0
ssVfeatured <dobj>
p47
(dp48
g30
I9
sg31
I9
sg32
g39
sg34
Vfeatured
p49
sg36
F1.0
ssV<subj> posted people
p50
(dp51
g12
S'subj'
p52
sg14
I36
sg15
I36
sg16
Vposted people
p53
sg18
F1.0
ssV<subj> get seat
p54
(dp55
g30
I9
sg31
I9
sg32
g33
sg34
Vget seat
p56
sg36
F1.0
ssS"<subj> 'm"
p57
(dp58
S'type'
p59
S'subj'
p60
sS'freq'
p61
I9
sS'subj_freq'
p62
I9
sS'display'
p63
S"'m"
p64
sS'prob'
p65
F1.0
ssVdid <dobj>
p66
(dp67
g12
g13
sg14
I27
sg15
I27
sg16
Vdid
p68
sg18
F1.0
ssVkeep <dobj>
p69
(dp70
g30
I9
sg31
I9
sg32
g39
sg34
Vkeep
p71
sg36
F1.0
ssV<subj> featured
p72
(dp73
g30
I9
sg31
I9
sg32
g33
sg34
Vfeatured
p74
sg36
F1.0
ssVreleased <dobj>
p75
(dp76
g30
I9
sg31
I9
sg32
g39
sg34
Vreleased
p77
sg36
F1.0
ssS'<subj> found'
p78
(dp79
S'type'
p80
S'subj'
p81
sS'freq'
p82
I4
sS'subj_freq'
p83
I4
sS'display'
p84
S'found'
p85
sS'prob'
p86
F1.0
ssV<subj> wait
p87
(dp88
g30
I7
sg31
I7
sg32
g33
sg34
Vwait
p89
sg36
F1.0
ssVconveyed <dobj>
p90
(dp91
g30
I9
sg31
I9
sg32
g39
sg34
Vconveyed
p92
sg36
F1.0
ssVCalled <dobj>
p93
(dp94
g30
I23
sg31
I23
sg32
g39
sg34
VCalled
p95
sg36
F1.0
ssVwait <dobj>
p96
(dp97
g30
I7
sg31
I7
sg32
g39
sg34
Vwait
p98
sg36
F1.0
ssVforces <dobj>
p99
(dp100
g12
g13
sg14
I27
sg15
I27
sg16
Vforces
p101
sg18
F1.0
ssV<subj> did
p102
(dp103
g12
g52
sg14
I27
sg15
I27
sg16
Vdid
p104
sg18
F1.0
ssV<subj> blown
p105
(dp106
g12
g52
sg14
I36
sg15
I36
sg16
Vblown
p107
sg18
F1.0
ssS"'m <dobj>"
p108
(dp109
g59
S'dobj'
p110
sg61
I9
sg62
I9
sg63
S"'m"
p111
sg65
F1.0
ssS'described <dobj>'
p112
(dp113
g21
S'dobj'
p114
sg23
I1
sg24
I1
sg25
S'described'
p115
sg27
F1.0
ssVposted <dobj>
p116
(dp117
g12
g13
sg14
I36
sg15
I36
sg16
Vposted
p118
sg18
F1.0
ssS'<subj> desired sentiment'
p119
(dp120
g21
g22
sg23
I1
sg24
I1
sg25
S'desired sentiment'
p121
sg27
F1.0
ssV<subj> watched
p122
(dp123
g12
g52
sg14
I27
sg15
I27
sg16
Vwatched
p124
sg18
F1.0
ssV<subj> 'm nurse
p125
(dp126
S'subj_freq'
p127
I2
sS'freq'
p128
I2
sS'type'
p129
S'subj'
p130
sS'display'
p131
V'm nurse
p132
sS'prob'
p133
F1.0
ssV<subj> imagined worlds
p134
(dp135
g30
I9
sg31
I9
sg32
g33
sg34
Vimagined worlds
p136
sg36
F1.0
ssVblown <dobj>
p137
(dp138
g12
g13
sg14
I36
sg15
I36
sg16
Vblown
p139
sg18
F1.0
ssS'built <dobj>'
p140
(dp141
S'subj_freq'
p142
I0
sS'freq'
p143
I1
sS'type'
p144
S'dobj'
p145
sS'display'
p146
S'built'
p147
sS'prob'
p148
F0.0
ssV<subj> get
p149
(dp150
g30
I9
sg31
I9
sg32
g33
sg34
Vget
p151
sg36
F1.0
ssV<subj> give
p152
(dp153
g12
g52
sg14
I41
sg15
I41
sg16
Vgive
p154
sg18
F1.0
ssS'<subj> built'
p155
(dp156
g142
I0
sg143
I1
sg144
S'subj'
p157
sg146
S'built'
p158
sg148
F0.0
ssV<subj> keep
p159
(dp160
g30
I9
sg31
I9
sg32
g33
sg34
Vkeep
p161
sg36
F1.0
ssV<subj> forces
p162
(dp163
g12
g52
sg14
I27
sg15
I27
sg16
Vforces
p164
sg18
F1.0
ssV<subj> Called Ad
p165
(dp166
g30
I14
sg31
I14
sg32
g33
sg34
VCalled Ad
p167
sg36
F1.0
ssS'block <dobj>'
p168
(dp169
g21
g114
sg23
I1
sg24
I1
sg25
S'block'
p170
sg27
F1.0
ssV<subj> was blown
p171
(dp172
g12
g52
sg14
I36
sg15
I36
sg16
Vwas blown
p173
sg18
F1.0
ssV<subj> capture
p174
(dp175
g30
I9
sg31
I9
sg32
g33
sg34
Vcapture
p176
sg36
F1.0
ssVtracks <dobj>
p177
(dp178
g30
I9
sg31
I9
sg32
g39
sg34
Vtracks
p179
sg36
F1.0
ssS'<subj> found presentation'
p180
(dp181
g80
g81
sg82
I4
sg83
I4
sg84
S'found presentation'
p182
sg86
F1.0
ssS'<subj> think'
p183
(dp184
S'subj_freq'
p185
I4
sS'freq'
p186
I4
sS'type'
p187
S'subj'
p188
sS'display'
p189
S'think'
p190
sS'prob'
p191
F1.0
ssVgive <dobj>
p192
(dp193
g12
g13
sg14
I41
sg15
I41
sg16
Vgive
p194
sg18
F1.0
ssS'think <dobj>'
p195
(dp196
g185
I4
sg186
I4
sg187
S'dobj'
p197
sg189
S'think'
p198
sg191
F1.0
ssV<subj> posted
p199
(dp200
g12
g52
sg14
I36
sg15
I36
sg16
Vposted
p201
sg18
F1.0
ssV<subj> Called D
p202
(dp203
g30
I7
sg31
I7
sg32
g33
sg34
VCalled D
p204
sg36
F1.0
ssV<subj> Called
p205
(dp206
g30
I23
sg31
I23
sg32
g33
sg34
VCalled
p207
sg36
F1.0
ssS'sharing <dobj>'
p208
(dp209
g30
I0
sg31
I14
sg32
g39
sg34
S'sharing'
p210
sg36
F0.0
ssS'<subj> learning'
p211
(dp212
g3
I8
sg4
I8
sg5
S'subj'
p213
sg7
S'learning'
p214
sg9
F1.0
ssV<subj> read
p215
(dp216
g12
g52
sg14
I36
sg15
I36
sg16
Vread
p217
sg18
F1.0
ssV<subj> Called L
p218
(dp219
g30
I7
sg31
I7
sg32
g33
sg34
VCalled L
p220
sg36
F1.0
ssV<subj> released
p221
(dp222
g30
I9
sg31
I9
sg32
g33
sg34
Vreleased
p223
sg36
F1.0
ssVCompiled <dobj>
p224
(dp225
g30
I9
sg31
I9
sg32
g39
sg34
VCompiled
p226
sg36
F1.0
ssVread <dobj>
p227
(dp228
g12
g13
sg14
I36
sg15
I36
sg16
Vread
p229
sg18
F1.0
ssV<subj> imagined
p230
(dp231
g30
I9
sg31
I9
sg32
g33
sg34
Vimagined
p232
sg36
F1.0
ssS'<subj> described'
p233
(dp234
g21
g22
sg23
I1
sg24
I1
sg25
S'described'
p235
sg27
F1.0
ssS'<subj> sharing'
p236
(dp237
g30
I0
sg31
I14
sg32
g33
sg34
S'sharing'
p238
sg36
F0.0
ssV<subj> bring
p239
(dp240
g30
I9
sg31
I9
sg32
g33
sg34
Vbring
p241
sg36
F1.0
ssVcapture <dobj>
p242
(dp243
g30
I9
sg31
I9
sg32
g39
sg34
Vcapture
p244
sg36
F1.0
ssV<subj> Compiled
p245
(dp246
g30
I9
sg31
I9
sg32
g33
sg34
VCompiled
p247
sg36
F1.0
ssS'found <dobj>'
p248
(dp249
g80
S'dobj'
p250
sg82
I4
sg83
I4
sg84
S'found'
p251
sg86
F1.0
ssV<subj> Called Land
p252
(dp253
g30
I23
sg31
I23
sg32
g33
sg34
VCalled Land
p254
sg36
F1.0
ssVget <dobj>
p255
(dp256
g30
I9
sg31
I9
sg32
g39
sg34
Vget
p257
sg36
F1.0
ssS'desired <dobj>'
p258
(dp259
g21
g114
sg23
I1
sg24
I1
sg25
S'desired'
p260
sg27
F1.0
ssV<subj> conveyed
p261
(dp262
g30
I9
sg31
I9
sg32
g33
sg34
Vconveyed
p263
sg36
F1.0
ss.