(dp0
S'learning <dobj>'
p1
(dp2
S'type'
p3
S'dobj'
p4
sS'freq'
p5
I8
sS'subj_freq'
p6
I8
sS'display'
p7
S'learning'
p8
sS'prob'
p9
F1.0
ssVwatched <dobj>
p10
(dp11
S'subj_freq'
p12
I26
sS'freq'
p13
I26
sS'type'
p14
S'dobj'
p15
sS'display'
p16
Vwatched
p17
sS'prob'
p18
F1.0
ssS'<subj> desired'
p19
(dp20
S'subj_freq'
p21
I1
sS'freq'
p22
I1
sS'type'
p23
S'subj'
p24
sS'display'
p25
S'desired'
p26
sS'prob'
p27
F1.0
ssV<subj> tracks
p28
(dp29
S'type'
p30
S'subj'
p31
sS'freq'
p32
I9
sS'subj_freq'
p33
I9
sS'display'
p34
Vtracks
p35
sS'prob'
p36
F1.0
ssVimagined <dobj>
p37
(dp38
g30
S'dobj'
p39
sg32
I9
sg33
I9
sg34
Vimagined
p40
sg36
F1.0
ssS'<subj> block'
p41
(dp42
g21
I1
sg22
I1
sg23
g24
sg25
S'block'
p43
sg27
F1.0
ssVbring <dobj>
p44
(dp45
g30
g39
sg32
I9
sg33
I9
sg34
Vbring
p46
sg36
F1.0
ssVfeatured <dobj>
p47
(dp48
g30
g39
sg32
I9
sg33
I9
sg34
Vfeatured
p49
sg36
F1.0
ssV<subj> read
p50
(dp51
g12
I35
sg13
I35
sg14
S'subj'
p52
sg16
Vread
p53
sg18
F1.0
ssV<subj> posted people
p54
(dp55
g12
I35
sg13
I35
sg14
g52
sg16
Vposted people
p56
sg18
F1.0
ssV<subj> get seat
p57
(dp58
g30
g31
sg32
I9
sg33
I9
sg34
Vget seat
p59
sg36
F1.0
ssS"<subj> 'm"
p60
(dp61
S'subj_freq'
p62
I8
sS'freq'
p63
I8
sS'type'
p64
S'subj'
p65
sS'display'
p66
S"'m"
p67
sS'prob'
p68
F1.0
ssVdid <dobj>
p69
(dp70
g12
I26
sg13
I26
sg14
g15
sg16
Vdid
p71
sg18
F1.0
ssVkeep <dobj>
p72
(dp73
g30
g39
sg32
I9
sg33
I9
sg34
Vkeep
p74
sg36
F1.0
ssV<subj> featured
p75
(dp76
g30
g31
sg32
I9
sg33
I9
sg34
Vfeatured
p77
sg36
F1.0
ssS'<subj> desired sentiment'
p78
(dp79
g21
I1
sg22
I1
sg23
g24
sg25
S'desired sentiment'
p80
sg27
F1.0
ssS'<subj> found'
p81
(dp82
S'subj_freq'
p83
I4
sS'freq'
p84
I4
sS'type'
p85
S'subj'
p86
sS'display'
p87
S'found'
p88
sS'prob'
p89
F1.0
ssVconveyed <dobj>
p90
(dp91
g30
g39
sg32
I9
sg33
I9
sg34
Vconveyed
p92
sg36
F1.0
ssVCalled <dobj>
p93
(dp94
g30
g39
sg32
I23
sg33
I23
sg34
VCalled
p95
sg36
F1.0
ssVwait <dobj>
p96
(dp97
g30
g39
sg32
I7
sg33
I7
sg34
Vwait
p98
sg36
F1.0
ssVforces <dobj>
p99
(dp100
g12
I26
sg13
I26
sg14
g15
sg16
Vforces
p101
sg18
F1.0
ssV<subj> did
p102
(dp103
g12
I26
sg13
I26
sg14
g52
sg16
Vdid
p104
sg18
F1.0
ssV<subj> blown
p105
(dp106
g12
I35
sg13
I35
sg14
g52
sg16
Vblown
p107
sg18
F1.0
ssS"'m <dobj>"
p108
(dp109
g62
I8
sg63
I8
sg64
S'dobj'
p110
sg66
S"'m"
p111
sg68
F1.0
ssS'described <dobj>'
p112
(dp113
g21
I1
sg22
I1
sg23
S'dobj'
p114
sg25
S'described'
p115
sg27
F1.0
ssVposted <dobj>
p116
(dp117
g12
I35
sg13
I35
sg14
g15
sg16
Vposted
p118
sg18
F1.0
ssV<subj> Called L
p119
(dp120
g30
g31
sg32
I7
sg33
I7
sg34
VCalled L
p121
sg36
F1.0
ssVreleased <dobj>
p122
(dp123
g30
g39
sg32
I9
sg33
I9
sg34
Vreleased
p124
sg36
F1.0
ssV<subj> watched
p125
(dp126
g12
I26
sg13
I26
sg14
g52
sg16
Vwatched
p127
sg18
F1.0
ssV<subj> 'm nurse
p128
(dp129
S'type'
p130
S'subj'
p131
sS'freq'
p132
I1
sS'subj_freq'
p133
I1
sS'display'
p134
V'm nurse
p135
sS'prob'
p136
F1.0
ssS'found <dobj>'
p137
(dp138
g83
I4
sg84
I4
sg85
S'dobj'
p139
sg87
S'found'
p140
sg89
F1.0
ssVblown <dobj>
p141
(dp142
g12
I35
sg13
I35
sg14
g15
sg16
Vblown
p143
sg18
F1.0
ssS'built <dobj>'
p144
(dp145
S'type'
p146
S'dobj'
p147
sS'freq'
p148
I1
sS'subj_freq'
p149
I0
sS'display'
p150
S'built'
p151
sS'prob'
p152
F0.0
ssV<subj> get
p153
(dp154
g30
g31
sg32
I9
sg33
I9
sg34
Vget
p155
sg36
F1.0
ssV<subj> give
p156
(dp157
g12
I40
sg13
I40
sg14
g52
sg16
Vgive
p158
sg18
F1.0
ssVtracks <dobj>
p159
(dp160
g30
g39
sg32
I9
sg33
I9
sg34
Vtracks
p161
sg36
F1.0
ssV<subj> keep
p162
(dp163
g30
g31
sg32
I9
sg33
I9
sg34
Vkeep
p164
sg36
F1.0
ssV<subj> forces
p165
(dp166
g12
I26
sg13
I26
sg14
g52
sg16
Vforces
p167
sg18
F1.0
ssV<subj> released
p168
(dp169
g30
g31
sg32
I9
sg33
I9
sg34
Vreleased
p170
sg36
F1.0
ssS'block <dobj>'
p171
(dp172
g21
I1
sg22
I1
sg23
g114
sg25
S'block'
p173
sg27
F1.0
ssV<subj> was blown
p174
(dp175
g12
I35
sg13
I35
sg14
g52
sg16
Vwas blown
p176
sg18
F1.0
ssV<subj> capture
p177
(dp178
g30
g31
sg32
I9
sg33
I9
sg34
Vcapture
p179
sg36
F1.0
ssS'<subj> built'
p180
(dp181
g146
S'subj'
p182
sg148
I1
sg149
I0
sg150
S'built'
p183
sg152
F0.0
ssS'<subj> found presentation'
p184
(dp185
g83
I4
sg84
I4
sg85
g86
sg87
S'found presentation'
p186
sg89
F1.0
ssS'<subj> think'
p187
(dp188
S'type'
p189
S'subj'
p190
sS'freq'
p191
I4
sS'subj_freq'
p192
I4
sS'display'
p193
S'think'
p194
sS'prob'
p195
F1.0
ssVgive <dobj>
p196
(dp197
g12
I40
sg13
I40
sg14
g15
sg16
Vgive
p198
sg18
F1.0
ssS'think <dobj>'
p199
(dp200
g189
S'dobj'
p201
sg191
I4
sg192
I4
sg193
S'think'
p202
sg195
F1.0
ssV<subj> posted
p203
(dp204
g12
I35
sg13
I35
sg14
g52
sg16
Vposted
p205
sg18
F1.0
ssV<subj> Called D
p206
(dp207
g30
g31
sg32
I7
sg33
I7
sg34
VCalled D
p208
sg36
F1.0
ssV<subj> Called
p209
(dp210
g30
g31
sg32
I23
sg33
I23
sg34
VCalled
p211
sg36
F1.0
ssS'sharing <dobj>'
p212
(dp213
g30
g39
sg32
I14
sg33
I0
sg34
S'sharing'
p214
sg36
F0.0
ssS'<subj> learning'
p215
(dp216
g3
S'subj'
p217
sg5
I8
sg6
I8
sg7
S'learning'
p218
sg9
F1.0
ssVget <dobj>
p219
(dp220
g30
g39
sg32
I9
sg33
I9
sg34
Vget
p221
sg36
F1.0
ssV<subj> wait
p222
(dp223
g30
g31
sg32
I7
sg33
I7
sg34
Vwait
p224
sg36
F1.0
ssV<subj> Called Ad
p225
(dp226
g30
g31
sg32
I14
sg33
I14
sg34
VCalled Ad
p227
sg36
F1.0
ssVCompiled <dobj>
p228
(dp229
g30
g39
sg32
I9
sg33
I9
sg34
VCompiled
p230
sg36
F1.0
ssVread <dobj>
p231
(dp232
g12
I35
sg13
I35
sg14
g15
sg16
Vread
p233
sg18
F1.0
ssV<subj> imagined
p234
(dp235
g30
g31
sg32
I9
sg33
I9
sg34
Vimagined
p236
sg36
F1.0
ssS'<subj> described'
p237
(dp238
g21
I1
sg22
I1
sg23
g24
sg25
S'described'
p239
sg27
F1.0
ssS'<subj> sharing'
p240
(dp241
g30
g31
sg32
I14
sg33
I0
sg34
S'sharing'
p242
sg36
F0.0
ssV<subj> bring
p243
(dp244
g30
g31
sg32
I9
sg33
I9
sg34
Vbring
p245
sg36
F1.0
ssVcapture <dobj>
p246
(dp247
g30
g39
sg32
I9
sg33
I9
sg34
Vcapture
p248
sg36
F1.0
ssV<subj> Compiled
p249
(dp250
g30
g31
sg32
I9
sg33
I9
sg34
VCompiled
p251
sg36
F1.0
ssV<subj> imagined worlds
p252
(dp253
g30
g31
sg32
I9
sg33
I9
sg34
Vimagined worlds
p254
sg36
F1.0
ssV<subj> Called Land
p255
(dp256
g30
g31
sg32
I23
sg33
I23
sg34
VCalled Land
p257
sg36
F1.0
ssS'desired <dobj>'
p258
(dp259
g21
I1
sg22
I1
sg23
g114
sg25
S'desired'
p260
sg27
F1.0
ssV<subj> conveyed
p261
(dp262
g30
g31
sg32
I9
sg33
I9
sg34
Vconveyed
p263
sg36
F1.0
ss.