(dp0
S'learning <dobj>'
p1
(dp2
S'type'
p3
S'dobj'
p4
sS'freq'
p5
I8
sS'subj_freq'
p6
I8
sS'display'
p7
S'learning'
p8
sS'prob'
p9
F1.0
ssVwatched <dobj>
p10
(dp11
S'subj_freq'
p12
I26
sS'freq'
p13
I26
sS'type'
p14
S'dobj'
p15
sS'display'
p16
Vwatched
p17
sS'prob'
p18
F1.0
ssS'<subj> desired'
p19
(dp20
S'subj_freq'
p21
I1
sS'freq'
p22
I1
sS'type'
p23
S'subj'
p24
sS'display'
p25
S'desired'
p26
sS'prob'
p27
F1.0
ssV<subj> tracks
p28
(dp29
S'type'
p30
S'subj'
p31
sS'freq'
p32
I9
sS'subj_freq'
p33
I9
sS'display'
p34
Vtracks
p35
sS'prob'
p36
F1.0
ssVimagined <dobj>
p37
(dp38
g30
S'dobj'
p39
sg32
I9
sg33
I9
sg34
Vimagined
p40
sg36
F1.0
ssS'<subj> block'
p41
(dp42
g21
I1
sg22
I1
sg23
g24
sg25
S'block'
p43
sg27
F1.0
ssVbring <dobj>
p44
(dp45
g30
g39
sg32
I9
sg33
I9
sg34
Vbring
p46
sg36
F1.0
ssVfeatured <dobj>
p47
(dp48
g30
g39
sg32
I9
sg33
I9
sg34
Vfeatured
p49
sg36
F1.0
ssV<subj> posted people
p50
(dp51
g12
I35
sg13
I35
sg14
S'subj'
p52
sg16
Vposted people
p53
sg18
F1.0
ssV<subj> get seat
p54
(dp55
g30
g31
sg32
I9
sg33
I9
sg34
Vget seat
p56
sg36
F1.0
ssS"<subj> 'm"
p57
(dp58
S'subj_freq'
p59
I8
sS'freq'
p60
I8
sS'type'
p61
S'subj'
p62
sS'display'
p63
S"'m"
p64
sS'prob'
p65
F1.0
ssVdid <dobj>
p66
(dp67
g12
I26
sg13
I26
sg14
g15
sg16
Vdid
p68
sg18
F1.0
ssVkeep <dobj>
p69
(dp70
g30
g39
sg32
I9
sg33
I9
sg34
Vkeep
p71
sg36
F1.0
ssV<subj> featured
p72
(dp73
g30
g31
sg32
I9
sg33
I9
sg34
Vfeatured
p74
sg36
F1.0
ssS'<subj> desired sentiment'
p75
(dp76
g21
I1
sg22
I1
sg23
g24
sg25
S'desired sentiment'
p77
sg27
F1.0
ssS'<subj> found'
p78
(dp79
S'subj_freq'
p80
I4
sS'freq'
p81
I4
sS'type'
p82
S'subj'
p83
sS'display'
p84
S'found'
p85
sS'prob'
p86
F1.0
ssVconveyed <dobj>
p87
(dp88
g30
g39
sg32
I9
sg33
I9
sg34
Vconveyed
p89
sg36
F1.0
ssVCalled <dobj>
p90
(dp91
g30
g39
sg32
I23
sg33
I23
sg34
VCalled
p92
sg36
F1.0
ssVwait <dobj>
p93
(dp94
g30
g39
sg32
I7
sg33
I7
sg34
Vwait
p95
sg36
F1.0
ssVforces <dobj>
p96
(dp97
g12
I26
sg13
I26
sg14
g15
sg16
Vforces
p98
sg18
F1.0
ssV<subj> did
p99
(dp100
g12
I26
sg13
I26
sg14
g52
sg16
Vdid
p101
sg18
F1.0
ssV<subj> blown
p102
(dp103
g12
I35
sg13
I35
sg14
g52
sg16
Vblown
p104
sg18
F1.0
ssS"'m <dobj>"
p105
(dp106
g59
I8
sg60
I8
sg61
S'dobj'
p107
sg63
S"'m"
p108
sg65
F1.0
ssS'described <dobj>'
p109
(dp110
g21
I1
sg22
I1
sg23
S'dobj'
p111
sg25
S'described'
p112
sg27
F1.0
ssVposted <dobj>
p113
(dp114
g12
I35
sg13
I35
sg14
g15
sg16
Vposted
p115
sg18
F1.0
ssV<subj> Called L
p116
(dp117
g30
g31
sg32
I7
sg33
I7
sg34
VCalled L
p118
sg36
F1.0
ssVreleased <dobj>
p119
(dp120
g30
g39
sg32
I9
sg33
I9
sg34
Vreleased
p121
sg36
F1.0
ssV<subj> 'm nurse
p122
(dp123
S'type'
p124
S'subj'
p125
sS'freq'
p126
I1
sS'subj_freq'
p127
I1
sS'display'
p128
V'm nurse
p129
sS'prob'
p130
F1.0
ssS'found <dobj>'
p131
(dp132
g80
I4
sg81
I4
sg82
S'dobj'
p133
sg84
S'found'
p134
sg86
F1.0
ssVblown <dobj>
p135
(dp136
g12
I35
sg13
I35
sg14
g15
sg16
Vblown
p137
sg18
F1.0
ssS'built <dobj>'
p138
(dp139
S'type'
p140
S'dobj'
p141
sS'freq'
p142
I1
sS'subj_freq'
p143
I0
sS'display'
p144
S'built'
p145
sS'prob'
p146
F0.0
ssV<subj> get
p147
(dp148
g30
g31
sg32
I9
sg33
I9
sg34
Vget
p149
sg36
F1.0
ssV<subj> give
p150
(dp151
g12
I40
sg13
I40
sg14
g52
sg16
Vgive
p152
sg18
F1.0
ssVtracks <dobj>
p153
(dp154
g30
g39
sg32
I9
sg33
I9
sg34
Vtracks
p155
sg36
F1.0
ssV<subj> conveyed
p156
(dp157
g30
g31
sg32
I9
sg33
I9
sg34
Vconveyed
p158
sg36
F1.0
ssV<subj> forces
p159
(dp160
g12
I26
sg13
I26
sg14
g52
sg16
Vforces
p161
sg18
F1.0
ssV<subj> released
p162
(dp163
g30
g31
sg32
I9
sg33
I9
sg34
Vreleased
p164
sg36
F1.0
ssS'block <dobj>'
p165
(dp166
g21
I1
sg22
I1
sg23
g111
sg25
S'block'
p167
sg27
F1.0
ssV<subj> was blown
p168
(dp169
g12
I35
sg13
I35
sg14
g52
sg16
Vwas blown
p170
sg18
F1.0
ssV<subj> capture
p171
(dp172
g30
g31
sg32
I9
sg33
I9
sg34
Vcapture
p173
sg36
F1.0
ssS'<subj> built'
p174
(dp175
g140
S'subj'
p176
sg142
I1
sg143
I0
sg144
S'built'
p177
sg146
F0.0
ssS'<subj> found presentation'
p178
(dp179
g80
I4
sg81
I4
sg82
g83
sg84
S'found presentation'
p180
sg86
F1.0
ssS'<subj> think'
p181
(dp182
S'type'
p183
S'subj'
p184
sS'freq'
p185
I4
sS'subj_freq'
p186
I4
sS'display'
p187
S'think'
p188
sS'prob'
p189
F1.0
ssVgive <dobj>
p190
(dp191
g12
I40
sg13
I40
sg14
g15
sg16
Vgive
p192
sg18
F1.0
ssS'think <dobj>'
p193
(dp194
g183
S'dobj'
p195
sg185
I4
sg186
I4
sg187
S'think'
p196
sg189
F1.0
ssV<subj> posted
p197
(dp198
g12
I35
sg13
I35
sg14
g52
sg16
Vposted
p199
sg18
F1.0
ssV<subj> Called Land
p200
(dp201
g30
g31
sg32
I23
sg33
I23
sg34
VCalled Land
p202
sg36
F1.0
ssV<subj> Called D
p203
(dp204
g30
g31
sg32
I7
sg33
I7
sg34
VCalled D
p205
sg36
F1.0
ssV<subj> Called
p206
(dp207
g30
g31
sg32
I23
sg33
I23
sg34
VCalled
p208
sg36
F1.0
ssS'sharing <dobj>'
p209
(dp210
g30
g39
sg32
I14
sg33
I0
sg34
S'sharing'
p211
sg36
F0.0
ssS'<subj> described'
p212
(dp213
g21
I1
sg22
I1
sg23
g24
sg25
S'described'
p214
sg27
F1.0
ssV<subj> read
p215
(dp216
g12
I35
sg13
I35
sg14
g52
sg16
Vread
p217
sg18
F1.0
ssV<subj> wait
p218
(dp219
g30
g31
sg32
I7
sg33
I7
sg34
Vwait
p220
sg36
F1.0
ssV<subj> Called Ad
p221
(dp222
g30
g31
sg32
I14
sg33
I14
sg34
VCalled Ad
p223
sg36
F1.0
ssVCompiled <dobj>
p224
(dp225
g30
g39
sg32
I9
sg33
I9
sg34
VCompiled
p226
sg36
F1.0
ssVread <dobj>
p227
(dp228
g12
I35
sg13
I35
sg14
g15
sg16
Vread
p229
sg18
F1.0
ssV<subj> imagined
p230
(dp231
g30
g31
sg32
I9
sg33
I9
sg34
Vimagined
p232
sg36
F1.0
ssV<subj> watched
p233
(dp234
g12
I26
sg13
I26
sg14
g52
sg16
Vwatched
p235
sg18
F1.0
ssS'<subj> learning'
p236
(dp237
g3
S'subj'
p238
sg5
I8
sg6
I8
sg7
S'learning'
p239
sg9
F1.0
ssV<subj> bring
p240
(dp241
g30
g31
sg32
I9
sg33
I9
sg34
Vbring
p242
sg36
F1.0
ssVcapture <dobj>
p243
(dp244
g30
g39
sg32
I9
sg33
I9
sg34
Vcapture
p245
sg36
F1.0
ssV<subj> Compiled
p246
(dp247
g30
g31
sg32
I9
sg33
I9
sg34
VCompiled
p248
sg36
F1.0
ssS'<subj> sharing'
p249
(dp250
g30
g31
sg32
I14
sg33
I0
sg34
S'sharing'
p251
sg36
F0.0
ssV<subj> imagined worlds
p252
(dp253
g30
g31
sg32
I9
sg33
I9
sg34
Vimagined worlds
p254
sg36
F1.0
ssV<subj> keep
p255
(dp256
g30
g31
sg32
I9
sg33
I9
sg34
Vkeep
p257
sg36
F1.0
ssVget <dobj>
p258
(dp259
g30
g39
sg32
I9
sg33
I9
sg34
Vget
p260
sg36
F1.0
ssS'desired <dobj>'
p261
(dp262
g21
I1
sg22
I1
sg23
g111
sg25
S'desired'
p263
sg27
F1.0
ss.